; Function Attrs: nounwind uwtable
define ptr @l_Lean_Meta_Grind_Arith_CommRing_EqCnstr_denoteExpr___rarg___lambda__1(ptr noundef %0, ptr noundef %1, ptr noundef %2, ptr noundef %3) #0 {
  %5 = load ptr, ptr @l___private_Lean_Meta_Tactic_Grind_Arith_CommRing_DenoteExpr_0__Lean_Meta_Grind_Arith_CommRing_denoteNum___rarg___lambda__1___closed__8, align 8, !tbaa !11
  %6 = ptrtoint ptr %1 to i64
  %7 = and i64 %6, 1
  %.not = icmp eq i64 %7, 0
  br i1 %.not, label %8, label %lean_inc.exit15

8:                                                ; preds = %4
  %.val.i = load i32, ptr %1, align 4, !tbaa !6
  %9 = icmp sgt i32 %.val.i, 0
  br i1 %9, label %10, label %12, !prof !5

10:                                               ; preds = %8
  %11 = add nuw i32 %.val.i, 1
  store i32 %11, ptr %1, align 4, !tbaa !6
  br label %lean_inc.exit15

12:                                               ; preds = %8
  %.not.i = icmp eq i32 %.val.i, 0
  br i1 %.not.i, label %lean_inc.exit15, label %13

13:                                               ; preds = %12
  tail call void @lean_inc_ref_cold(ptr noundef nonnull %1) #3
  br label %lean_inc.exit15

lean_inc.exit15:                                  ; preds = %13, %12, %10, %4
  %14 = ptrtoint ptr %0 to i64
  %15 = and i64 %14, 1
  %.not20 = icmp eq i64 %15, 0
  br i1 %.not20, label %16, label %lean_inc.exit

16:                                               ; preds = %lean_inc.exit15
  %.val.i16 = load i32, ptr %0, align 4, !tbaa !6
  %17 = icmp sgt i32 %.val.i16, 0
  br i1 %17, label %18, label %20, !prof !5

18:                                               ; preds = %16
  %19 = add nuw i32 %.val.i16, 1
  store i32 %19, ptr %0, align 4, !tbaa !6
  br label %lean_inc.exit

20:                                               ; preds = %16
  %.not.i17 = icmp eq i32 %.val.i16, 0
  br i1 %.not.i17, label %lean_inc.exit, label %21

21:                                               ; preds = %20
  tail call void @lean_inc_ref_cold(ptr noundef nonnull %0) #3
  br label %lean_inc.exit

lean_inc.exit:                                    ; preds = %21, %20, %18, %lean_inc.exit15
  %22 = getelementptr inbounds nuw i8, ptr %0, i64 16
  %23 = load ptr, ptr %22, align 8, !tbaa !11
  %24 = ptrtoint ptr %23 to i64
  %25 = and i64 %24, 1
  %.not.i19 = icmp eq i64 %25, 0
  br i1 %.not.i19, label %26, label %lean_inc.exit.i

26:                                               ; preds = %lean_inc.exit
  %.val.i.i = load i32, ptr %23, align 4, !tbaa !6
  %27 = icmp sgt i32 %.val.i.i, 0
  br i1 %27, label %28, label %30, !prof !5

28:                                               ; preds = %26
  %29 = add nuw i32 %.val.i.i, 1
  store i32 %29, ptr %23, align 4, !tbaa !6
  br label %lean_inc.exit.i

30:                                               ; preds = %26
  %.not.i.i = icmp eq i32 %.val.i.i, 0
  br i1 %.not.i.i, label %lean_inc.exit.i, label %31

31:                                               ; preds = %30
  tail call void @lean_inc_ref_cold(ptr noundef nonnull %23) #3
  br label %lean_inc.exit.i

lean_inc.exit.i:                                  ; preds = %31, %30, %28, %lean_inc.exit
  tail call void @lean_inc_heartbeat() #3
  %32 = tail call noalias ptr @mi_malloc_small(i64 noundef 40) #3
  %33 = icmp eq ptr %32, null
  br i1 %33, label %34, label %l___private_Lean_Meta_Tactic_Grind_Arith_CommRing_DenoteExpr_0__Lean_Meta_Grind_Arith_CommRing_denoteNum___rarg.exit

34:                                               ; preds = %lean_inc.exit.i
  tail call void @lean_internal_panic_out_of_memory() #4
  unreachable

l___private_Lean_Meta_Tactic_Grind_Arith_CommRing_DenoteExpr_0__Lean_Meta_Grind_Arith_CommRing_denoteNum___rarg.exit: ; preds = %lean_inc.exit.i
  %35 = getelementptr inbounds nuw i8, ptr %32, i64 4
  store i32 1, ptr %32, align 4, !tbaa !6
  store i32 -184549336, ptr %35, align 4
  %36 = getelementptr inbounds nuw i8, ptr %32, i64 8
  store ptr @l___private_Lean_Meta_Tactic_Grind_Arith_CommRing_DenoteExpr_0__Lean_Meta_Grind_Arith_CommRing_denoteNum___rarg___lambda__1___boxed, ptr %36, align 8, !tbaa !11
  %37 = getelementptr inbounds nuw i8, ptr %32, i64 16
  store i16 3, ptr %37, align 8, !tbaa !13
  %38 = getelementptr inbounds nuw i8, ptr %32, i64 18
  store i16 2, ptr %38, align 2, !tbaa !13
  %39 = getelementptr inbounds nuw i8, ptr %32, i64 24
  store ptr %5, ptr %39, align 8, !tbaa !11
  %40 = getelementptr inbounds nuw i8, ptr %32, i64 32
  store ptr %0, ptr %40, align 8, !tbaa !11
  %41 = tail call ptr @lean_apply_4(ptr noundef %23, ptr noundef nonnull inttoptr (i64 1 to ptr), ptr noundef nonnull inttoptr (i64 1 to ptr), ptr noundef %1, ptr noundef nonnull %32) #3
  tail call void @lean_inc_heartbeat() #3
  %42 = tail call noalias ptr @mi_malloc_small(i64 noundef 48) #3
  %43 = icmp eq ptr %42, null
  br i1 %43, label %44, label %lean_alloc_closure.exit

44:                                               ; preds = %l___private_Lean_Meta_Tactic_Grind_Arith_CommRing_DenoteExpr_0__Lean_Meta_Grind_Arith_CommRing_denoteNum___rarg.exit
  tail call void @lean_internal_panic_out_of_memory() #4
  unreachable

lean_alloc_closure.exit:                          ; preds = %l___private_Lean_Meta_Tactic_Grind_Arith_CommRing_DenoteExpr_0__Lean_Meta_Grind_Arith_CommRing_denoteNum___rarg.exit
  %45 = getelementptr inbounds nuw i8, ptr %42, i64 4
  store i32 1, ptr %42, align 4, !tbaa !6
  store i32 -184549328, ptr %45, align 4
  %46 = getelementptr inbounds nuw i8, ptr %42, i64 8
  store ptr @l___private_Lean_Meta_Tactic_Grind_Arith_CommRing_DenoteExpr_0__Lean_Meta_Grind_Arith_CommRing_mkEq___rarg, ptr %46, align 8, !tbaa !11
  %47 = getelementptr inbounds nuw i8, ptr %42, i64 16
  store i16 4, ptr %47, align 8, !tbaa !13
  %48 = getelementptr inbounds nuw i8, ptr %42, i64 18
  store i16 3, ptr %48, align 2, !tbaa !13
  %49 = getelementptr inbounds nuw i8, ptr %42, i64 24
  store ptr %0, ptr %49, align 8, !tbaa !11
  %50 = getelementptr inbounds nuw i8, ptr %42, i64 32
  store ptr %1, ptr %50, align 8, !tbaa !11
  %51 = getelementptr inbounds nuw i8, ptr %42, i64 40
  store ptr %3, ptr %51, align 8, !tbaa !11
  %52 = tail call ptr @lean_apply_4(ptr noundef %2, ptr noundef nonnull inttoptr (i64 1 to ptr), ptr noundef nonnull inttoptr (i64 1 to ptr), ptr noundef %41, ptr noundef nonnull %42) #3
  ret ptr %52
}